Certificate:
    Data:
        Version: 3 (0x2)
        Serial Number:
            a2:2c:eb:9b:91:61:81:09:62:49:10:e1:4b:05:ec:c7
        Signature Algorithm: sha256WithRSAEncryption
        Issuer: CN=Easy-RSA CA
        Validity
            Not Before: Jul 17 20:25:05 2022 GMT
            Not After : Oct 19 20:25:05 2024 GMT
        Subject: CN=Eaafb_mp4_client_20
        Subject Public Key Info:
            Public Key Algorithm: rsaEncryption
                RSA Public-Key: (2048 bit)
                Modulus:
                    00:bf:a7:b0:2c:73:d5:24:ef:cc:08:e4:c7:ed:bf:
                    ee:6b:9e:69:24:f8:38:b0:52:1b:25:d3:da:f3:93:
                    fb:51:39:da:29:52:46:ad:38:71:5f:4d:cf:48:40:
                    63:29:21:38:c5:fd:64:b2:7b:69:c0:ef:37:4a:4a:
                    c0:8f:cd:89:d6:68:3c:b0:fb:72:33:13:95:cc:06:
                    d1:18:95:36:71:f1:09:70:0e:e9:98:b6:22:e5:29:
                    9f:b3:80:c8:1f:69:45:1b:59:6c:8f:f9:80:e9:c1:
                    34:cb:b4:d2:62:61:c9:f3:78:27:ac:a7:91:9f:ef:
                    1e:89:98:87:c5:47:bd:33:4a:5c:df:f6:3d:4c:97:
                    27:d5:d3:b5:a6:22:e7:92:2d:48:e5:c1:18:08:bc:
                    9f:78:9e:25:e4:53:09:29:3f:99:96:43:21:ec:4d:
                    72:da:73:e8:d7:44:b0:c0:6b:1b:b4:0d:8d:22:53:
                    29:92:36:bd:25:b0:de:94:f5:d4:fa:e2:53:b4:39:
                    38:9a:74:c5:31:d6:dd:9f:74:51:c5:82:b3:be:1c:
                    36:6d:84:cd:71:37:9d:6d:38:e6:61:04:5c:d0:b0:
                    b1:53:86:7b:f3:82:0e:93:5b:10:90:ab:cb:90:27:
                    0e:0a:f8:0a:79:05:c6:94:00:6a:7f:1d:0c:58:f0:
                    d2:ff
                Exponent: 65537 (0x10001)
        X509v3 extensions:
            X509v3 Basic Constraints: 
                CA:FALSE
            X509v3 Subject Key Identifier: 
                08:84:21:F2:74:18:C8:7F:36:42:0B:FD:AC:27:CD:57:33:22:0F:82
            X509v3 Authority Key Identifier: 
                keyid:47:69:B3:20:54:B7:31:F3:0E:19:EA:35:05:59:EB:C9:A5:77:12:7E
                DirName:/CN=Easy-RSA CA
                serial:32:47:4F:BF:08:99:62:C3:BA:64:B4:FF:5D:7D:BC:EF:DB:64:BD:CB

            X509v3 Extended Key Usage: 
                TLS Web Client Authentication
            X509v3 Key Usage: 
                Digital Signature
    Signature Algorithm: sha256WithRSAEncryption
         4a:5a:84:81:b8:23:c7:77:b9:51:07:56:0a:c0:aa:e1:28:f4:
         64:c1:b1:82:65:c3:43:5b:d5:54:b7:bd:00:08:07:df:68:a7:
         3a:1f:68:c5:64:f5:b8:0e:d9:ac:d3:ec:e5:29:59:7b:dd:6c:
         8d:04:18:84:80:26:c9:66:6e:df:da:b2:7b:0b:93:76:41:37:
         ae:29:cf:85:36:9e:46:82:18:38:2e:e5:12:30:4d:b5:4a:8c:
         97:20:cf:5e:79:34:ef:16:af:61:21:ea:0f:1b:19:7f:2c:ee:
         ef:1a:bf:40:51:90:03:b5:81:e0:eb:06:35:aa:6a:62:ae:0c:
         d3:09:e4:cd:52:7c:91:b2:f9:7d:63:56:58:ad:6f:1c:e0:85:
         c5:c1:5e:91:df:91:4f:cd:d8:a2:1b:d1:4f:9b:d2:b2:3f:ef:
         89:85:48:e7:79:8a:0f:83:88:2c:4c:c8:e0:35:6b:af:3a:15:
         1b:a3:51:9d:c4:55:c7:a4:36:ff:e1:cd:1b:07:31:63:a9:2e:
         93:69:d4:e8:10:5b:51:52:2b:c6:12:e8:e4:75:c9:d0:9a:3b:
         d6:99:e6:1e:fb:16:38:09:9d:9d:f4:fd:26:2d:3a:ae:d2:13:
         20:53:bb:98:d1:52:f9:2e:07:12:22:8a:5d:c3:84:83:eb:f6:
         eb:6a:50:1a
-----BEGIN CERTIFICATE-----
MIIDYjCCAkqgAwIBAgIRAKIs65uRYYEJYkkQ4UsF7McwDQYJKoZIhvcNAQELBQAw
FjEUMBIGA1UEAwwLRWFzeS1SU0EgQ0EwHhcNMjIwNzE3MjAyNTA1WhcNMjQxMDE5
MjAyNTA1WjAeMRwwGgYDVQQDDBNFYWFmYl9tcDRfY2xpZW50XzIwMIIBIjANBgkq
hkiG9w0BAQEFAAOCAQ8AMIIBCgKCAQEAv6ewLHPVJO/MCOTH7b/ua55pJPg4sFIb
JdPa85P7UTnaKVJGrThxX03PSEBjKSE4xf1ksntpwO83SkrAj82J1mg8sPtyMxOV
zAbRGJU2cfEJcA7pmLYi5Smfs4DIH2lFG1lsj/mA6cE0y7TSYmHJ83gnrKeRn+8e
iZiHxUe9M0pc3/Y9TJcn1dO1piLnki1I5cEYCLyfeJ4l5FMJKT+ZlkMh7E1y2nPo
10SwwGsbtA2NIlMpkja9JbDelPXU+uJTtDk4mnTFMdbdn3RRxYKzvhw2bYTNcTed
bTjmYQRc0LCxU4Z784IOk1sQkKvLkCcOCvgKeQXGlABqfx0MWPDS/wIDAQABo4Gi
MIGfMAkGA1UdEwQCMAAwHQYDVR0OBBYEFAiEIfJ0GMh/NkIL/awnzVczIg+CMFEG
A1UdIwRKMEiAFEdpsyBUtzHzDhnqNQVZ68mldxJ+oRqkGDAWMRQwEgYDVQQDDAtF
YXN5LVJTQSBDQYIUMkdPvwiZYsO6ZLT/XX2879tkvcswEwYDVR0lBAwwCgYIKwYB
BQUHAwIwCwYDVR0PBAQDAgeAMA0GCSqGSIb3DQEBCwUAA4IBAQBKWoSBuCPHd7lR
B1YKwKrhKPRkwbGCZcNDW9VUt70ACAffaKc6H2jFZPW4Dtms0+zlKVl73WyNBBiE
gCbJZm7f2rJ7C5N2QTeuKc+FNp5Gghg4LuUSME21SoyXIM9eeTTvFq9hIeoPGxl/
LO7vGr9AUZADtYHg6wY1qmpirgzTCeTNUnyRsvl9Y1ZYrW8c4IXFwV6R35FPzdii
G9FPm9KyP++JhUjneYoPg4gsTMjgNWuvOhUbo1GdxFXHpDb/4c0bBzFjqS6TadTo
EFtRUivGEujkdcnQmjvWmeYe+xY4CZ2d9P0mLTqu0hMgU7uY0VL5LgcSIopdw4SD
6/bralAa
-----END CERTIFICATE-----
