Certificate:
    Data:
        Version: 3 (0x2)
        Serial Number:
            c3:99:ab:f9:5b:5a:8b:08:9d:be:c8:d9:61:5f:4b:7d
        Signature Algorithm: sha256WithRSAEncryption
        Issuer: CN=Easy-RSA CA
        Validity
            Not Before: Jul 17 20:25:05 2022 GMT
            Not After : Oct 19 20:25:05 2024 GMT
        Subject: CN=Eaafb_mp4_server
        Subject Public Key Info:
            Public Key Algorithm: rsaEncryption
                RSA Public-Key: (2048 bit)
                Modulus:
                    00:c3:fb:a0:2c:ac:8c:b3:31:a6:56:b0:32:03:50:
                    cb:6b:33:79:85:95:0b:d5:fd:a1:e5:d8:70:08:86:
                    1f:5a:e9:77:ce:52:22:4b:25:58:56:b9:b1:46:3b:
                    ab:42:42:dd:44:26:6b:22:ba:f5:1b:ac:75:ae:b5:
                    e3:2c:77:d3:b5:60:a7:c8:13:83:ab:fe:eb:ee:d2:
                    38:00:d4:cc:23:ec:76:62:9e:fd:a6:12:2d:52:c1:
                    b3:73:bd:3d:bf:2b:92:23:6b:56:2d:9b:3e:7f:59:
                    99:1a:97:65:c0:2d:3a:e0:9b:f4:54:86:a8:ea:e4:
                    af:3c:80:ea:ab:4d:9f:c0:ee:c0:b8:26:a0:19:75:
                    da:5d:3a:5c:6c:3f:12:a8:39:54:0b:21:a8:31:a8:
                    ce:cc:35:45:68:b2:a4:56:3f:45:16:4a:50:2e:ee:
                    55:a9:2b:aa:74:fd:c6:9d:64:b0:74:c1:f2:4f:38:
                    00:b0:8d:97:37:8e:20:0e:07:e4:79:f8:a4:2d:09:
                    c0:2a:2e:75:7b:c9:ed:94:34:3f:70:d2:0e:99:5f:
                    12:74:a7:4e:90:c6:d8:ce:0a:70:b8:ee:a4:95:a6:
                    d2:59:66:93:79:66:8b:73:78:b8:38:25:71:c4:7e:
                    9a:00:b5:c8:14:8c:f4:ff:bb:84:f3:39:a6:30:68:
                    45:f7
                Exponent: 65537 (0x10001)
        X509v3 extensions:
            X509v3 Basic Constraints: 
                CA:FALSE
            X509v3 Subject Key Identifier: 
                F8:7F:3E:FD:22:34:14:4A:D6:02:91:E5:12:FD:F8:E3:80:62:D9:92
            X509v3 Authority Key Identifier: 
                keyid:47:69:B3:20:54:B7:31:F3:0E:19:EA:35:05:59:EB:C9:A5:77:12:7E
                DirName:/CN=Easy-RSA CA
                serial:32:47:4F:BF:08:99:62:C3:BA:64:B4:FF:5D:7D:BC:EF:DB:64:BD:CB

            X509v3 Extended Key Usage: 
                TLS Web Server Authentication
            X509v3 Key Usage: 
                Digital Signature, Key Encipherment
            X509v3 Subject Alternative Name: 
                DNS:Eaafb_mp4_server
    Signature Algorithm: sha256WithRSAEncryption
         7d:84:ea:a2:8d:17:01:0e:a7:42:e2:88:06:4f:c3:ad:9a:c1:
         38:f3:ea:59:d0:2b:4c:fa:8f:a1:25:4c:1f:0f:96:00:1a:bd:
         c1:94:db:97:1c:4f:26:3b:3c:48:64:02:2a:c0:3d:17:3c:c9:
         d7:74:1e:eb:48:12:d0:b5:61:d4:41:02:02:91:1f:9d:c8:36:
         2c:2d:a8:25:c3:a0:46:70:7e:eb:6b:8a:3a:b7:e1:3c:f7:ab:
         7b:5d:58:75:7e:b5:ed:34:6b:1d:f2:65:da:6d:e9:51:a8:17:
         d0:33:fa:cb:ee:a3:90:dc:9f:70:ae:55:01:76:ed:c4:53:c6:
         c9:b3:6f:43:30:cd:b4:1a:b9:ef:54:32:9c:93:51:2a:98:3e:
         18:bc:2a:24:92:cd:a0:a3:1b:32:cf:c4:4d:a0:ef:b7:45:dd:
         83:0d:26:66:22:f6:70:e5:0b:3d:92:0c:2f:d3:97:0d:6e:a0:
         d9:1b:6b:b5:46:a6:b8:53:a8:bb:17:86:33:e5:8a:f7:f4:29:
         05:0e:a5:8b:af:62:ca:6c:6e:b3:15:18:f6:d1:f0:a4:45:c4:
         0a:16:63:a6:63:05:91:6d:4d:13:21:fa:6d:b7:f3:a0:95:85:
         bc:4c:3a:68:1b:1d:39:c0:3e:09:c1:20:f5:af:b5:4f:b9:5c:
         1e:e8:e9:97
-----BEGIN CERTIFICATE-----
MIIDfDCCAmSgAwIBAgIRAMOZq/lbWosInb7I2WFfS30wDQYJKoZIhvcNAQELBQAw
FjEUMBIGA1UEAwwLRWFzeS1SU0EgQ0EwHhcNMjIwNzE3MjAyNTA1WhcNMjQxMDE5
MjAyNTA1WjAbMRkwFwYDVQQDDBBFYWFmYl9tcDRfc2VydmVyMIIBIjANBgkqhkiG
9w0BAQEFAAOCAQ8AMIIBCgKCAQEAw/ugLKyMszGmVrAyA1DLazN5hZUL1f2h5dhw
CIYfWul3zlIiSyVYVrmxRjurQkLdRCZrIrr1G6x1rrXjLHfTtWCnyBODq/7r7tI4
ANTMI+x2Yp79phItUsGzc709vyuSI2tWLZs+f1mZGpdlwC064Jv0VIao6uSvPIDq
q02fwO7AuCagGXXaXTpcbD8SqDlUCyGoMajOzDVFaLKkVj9FFkpQLu5VqSuqdP3G
nWSwdMHyTzgAsI2XN44gDgfkefikLQnAKi51e8ntlDQ/cNIOmV8SdKdOkMbYzgpw
uO6klabSWWaTeWaLc3i4OCVxxH6aALXIFIz0/7uE8zmmMGhF9wIDAQABo4G/MIG8
MAkGA1UdEwQCMAAwHQYDVR0OBBYEFPh/Pv0iNBRK1gKR5RL9+OOAYtmSMFEGA1Ud
IwRKMEiAFEdpsyBUtzHzDhnqNQVZ68mldxJ+oRqkGDAWMRQwEgYDVQQDDAtFYXN5
LVJTQSBDQYIUMkdPvwiZYsO6ZLT/XX2879tkvcswEwYDVR0lBAwwCgYIKwYBBQUH
AwEwCwYDVR0PBAQDAgWgMBsGA1UdEQQUMBKCEEVhYWZiX21wNF9zZXJ2ZXIwDQYJ
KoZIhvcNAQELBQADggEBAH2E6qKNFwEOp0LiiAZPw62awTjz6lnQK0z6j6ElTB8P
lgAavcGU25ccTyY7PEhkAirAPRc8ydd0HutIEtC1YdRBAgKRH53INiwtqCXDoEZw
futrijq34Tz3q3tdWHV+te00ax3yZdpt6VGoF9Az+svuo5Dcn3CuVQF27cRTxsmz
b0MwzbQaue9UMpyTUSqYPhi8KiSSzaCjGzLPxE2g77dF3YMNJmYi9nDlCz2SDC/T
lw1uoNkba7VGprhTqLsXhjPlivf0KQUOpYuvYspsbrMVGPbR8KRFxAoWY6ZjBZFt
TRMh+m2386CVhbxMOmgbHTnAPgnBIPWvtU+5XB7o6Zc=
-----END CERTIFICATE-----
