Certificate:
    Data:
        Version: 3 (0x2)
        Serial Number:
            f0:af:2b:05:d7:95:d8:77:de:0f:03:eb:d5:69:6c:2b
        Signature Algorithm: sha256WithRSAEncryption
        Issuer: CN=Easy-RSA CA
        Validity
            Not Before: Jul 17 20:25:05 2022 GMT
            Not After : Oct 19 20:25:05 2024 GMT
        Subject: CN=Eaafb_mp4_client_21
        Subject Public Key Info:
            Public Key Algorithm: rsaEncryption
                RSA Public-Key: (2048 bit)
                Modulus:
                    00:d6:8a:95:fe:77:ae:90:a1:30:90:eb:2f:ee:6d:
                    d6:bb:70:8e:df:e6:94:8a:a1:ae:06:76:89:cd:52:
                    65:a8:c8:d2:d1:68:90:3b:cb:e8:de:34:09:85:63:
                    de:76:94:6c:d9:c0:2e:8a:c7:80:bd:8c:e4:8f:c5:
                    5c:2d:cd:fc:76:b8:6e:6e:0e:e0:1f:c6:38:25:2f:
                    49:e6:81:e3:0b:5e:97:a1:da:89:cb:e6:96:67:5b:
                    f1:ec:9c:b9:b4:2f:f0:ef:32:c3:30:b2:7b:79:6a:
                    1f:15:61:fe:3a:b2:02:16:23:62:19:2c:5c:ae:fa:
                    93:01:dc:cd:d5:f3:7c:a4:37:85:d0:65:4f:bb:41:
                    7d:c5:b9:91:61:9a:4d:97:ab:23:83:92:4c:e5:4c:
                    4a:6f:bb:72:5d:c8:ae:fd:1a:68:40:e9:19:1b:f2:
                    39:e3:de:37:e6:a9:a5:b1:c3:8d:af:34:d3:e7:94:
                    c9:0d:98:5a:8d:d7:de:be:d6:d0:d0:93:c6:6f:e9:
                    1b:a0:58:8d:be:16:83:47:02:6d:15:72:ae:1c:25:
                    af:12:4f:25:b3:e1:92:15:cf:5c:f7:6a:7e:6d:de:
                    31:a1:63:4e:66:41:af:2d:63:58:6c:f6:9e:ab:6a:
                    dc:41:fa:fd:50:d8:68:8d:a5:a5:24:74:d1:39:e9:
                    08:19
                Exponent: 65537 (0x10001)
        X509v3 extensions:
            X509v3 Basic Constraints: 
                CA:FALSE
            X509v3 Subject Key Identifier: 
                4C:A9:C2:5A:5A:C0:30:99:B4:0B:F3:90:58:38:09:3E:AF:C8:B2:70
            X509v3 Authority Key Identifier: 
                keyid:47:69:B3:20:54:B7:31:F3:0E:19:EA:35:05:59:EB:C9:A5:77:12:7E
                DirName:/CN=Easy-RSA CA
                serial:32:47:4F:BF:08:99:62:C3:BA:64:B4:FF:5D:7D:BC:EF:DB:64:BD:CB

            X509v3 Extended Key Usage: 
                TLS Web Client Authentication
            X509v3 Key Usage: 
                Digital Signature
    Signature Algorithm: sha256WithRSAEncryption
         38:3e:83:ee:47:a7:50:b8:c2:b6:14:43:cf:3c:47:46:e1:db:
         87:f9:10:55:45:c6:b7:21:b1:76:3e:b0:7f:64:dc:b5:48:17:
         1f:ca:25:57:03:a2:01:04:f4:c6:15:ce:c6:9e:6b:64:03:4c:
         30:5b:c5:f8:3e:37:b5:c3:aa:84:7b:21:bb:2c:46:16:be:1a:
         80:24:68:d5:21:eb:0f:4e:e8:d2:54:36:41:f9:c1:38:71:78:
         ae:d9:da:68:64:59:8a:8e:50:26:cd:e6:51:60:7c:06:99:4d:
         6a:6b:b3:b9:88:0f:94:a6:5a:8c:ab:77:bc:13:a3:62:aa:1b:
         bf:c2:07:04:42:67:41:29:df:55:33:e0:a1:4c:4d:9f:2e:7e:
         6c:89:84:13:fa:f0:22:d4:e7:69:8b:e2:74:14:5e:22:ab:2c:
         60:b7:28:7c:63:e0:8c:e5:f6:dd:2d:29:71:13:e4:5c:b3:d7:
         0e:c3:79:23:3b:4d:fa:76:e7:0f:a3:f9:3d:a0:29:16:74:f7:
         20:37:b5:f5:e5:05:da:c8:2f:37:39:84:6a:7c:2d:d6:94:fd:
         b2:71:ee:fe:27:94:76:57:3a:9f:a6:19:da:0c:c6:89:30:54:
         b1:22:00:21:99:ad:ba:95:d7:53:e0:c1:c5:a9:65:44:15:35:
         78:15:55:b0
-----BEGIN CERTIFICATE-----
MIIDYjCCAkqgAwIBAgIRAPCvKwXXldh33g8D69VpbCswDQYJKoZIhvcNAQELBQAw
FjEUMBIGA1UEAwwLRWFzeS1SU0EgQ0EwHhcNMjIwNzE3MjAyNTA1WhcNMjQxMDE5
MjAyNTA1WjAeMRwwGgYDVQQDDBNFYWFmYl9tcDRfY2xpZW50XzIxMIIBIjANBgkq
hkiG9w0BAQEFAAOCAQ8AMIIBCgKCAQEA1oqV/neukKEwkOsv7m3Wu3CO3+aUiqGu
BnaJzVJlqMjS0WiQO8vo3jQJhWPedpRs2cAuiseAvYzkj8VcLc38drhubg7gH8Y4
JS9J5oHjC16XodqJy+aWZ1vx7Jy5tC/w7zLDMLJ7eWofFWH+OrICFiNiGSxcrvqT
AdzN1fN8pDeF0GVPu0F9xbmRYZpNl6sjg5JM5UxKb7tyXciu/RpoQOkZG/I54943
5qmlscONrzTT55TJDZhajdfevtbQ0JPGb+kboFiNvhaDRwJtFXKuHCWvEk8ls+GS
Fc9c92p+bd4xoWNOZkGvLWNYbPaeq2rcQfr9UNhojaWlJHTROekIGQIDAQABo4Gi
MIGfMAkGA1UdEwQCMAAwHQYDVR0OBBYEFEypwlpawDCZtAvzkFg4CT6vyLJwMFEG
A1UdIwRKMEiAFEdpsyBUtzHzDhnqNQVZ68mldxJ+oRqkGDAWMRQwEgYDVQQDDAtF
YXN5LVJTQSBDQYIUMkdPvwiZYsO6ZLT/XX2879tkvcswEwYDVR0lBAwwCgYIKwYB
BQUHAwIwCwYDVR0PBAQDAgeAMA0GCSqGSIb3DQEBCwUAA4IBAQA4PoPuR6dQuMK2
FEPPPEdG4duH+RBVRca3IbF2PrB/ZNy1SBcfyiVXA6IBBPTGFc7GnmtkA0wwW8X4
Pje1w6qEeyG7LEYWvhqAJGjVIesPTujSVDZB+cE4cXiu2dpoZFmKjlAmzeZRYHwG
mU1qa7O5iA+UplqMq3e8E6Niqhu/wgcEQmdBKd9VM+ChTE2fLn5siYQT+vAi1Odp
i+J0FF4iqyxgtyh8Y+CM5fbdLSlxE+Rcs9cOw3kjO036ducPo/k9oCkWdPcgN7X1
5QXayC83OYRqfC3WlP2yce7+J5R2VzqfphnaDMaJMFSxIgAhma26lddT4MHFqWVE
FTV4FVWw
-----END CERTIFICATE-----
